target datalayout = "e-m:e-p270:32:32-p271:32:32-p272:64:64-i64:64-i128:128-f80:128-n8:16:32:64-S128"
target triple = "x86_64-pc-linux-gnu"

%"class.std::__cxx11::basic_string" = type { %"struct.std::__cxx11::basic_string<char>::_Alloc_hider", i64, %union.anon }
%"struct.std::__cxx11::basic_string<char>::_Alloc_hider" = type { ptr }
%union.anon = type { i64, [8 x i8] }
%"class.llvm::StringRef" = type { ptr, i64 }
%"class.clang::format::IntegerLiteralSeparatorFixer" = type { i8 }

; Function Attrs: mustprogress nounwind uwtable
define linkonce_odr hidden noundef ptr @_ZNK4llvm9StringRef3endEv(ptr noundef nonnull align 8 dereferenceable(16) %0) #0 comdat align 2 {
  %2 = alloca ptr, align 8
  store ptr %0, ptr %2, align 8
  %3 = load ptr, ptr %2, align 8
  %4 = getelementptr inbounds nuw %"class.llvm::StringRef", ptr %3, i32 0, i32 0
  %5 = load ptr, ptr %4, align 8
  %6 = getelementptr inbounds nuw %"class.llvm::StringRef", ptr %3, i32 0, i32 1
  %7 = load i64, ptr %6, align 8
  %8 = getelementptr inbounds i8, ptr %5, i64 %7
  ret ptr %8
}

; Function Attrs: mustprogress nounwind uwtable
define linkonce_odr hidden noundef ptr @_ZNK4llvm9StringRef5beginEv(ptr noundef nonnull align 8 dereferenceable(16) %0) #0 comdat align 2 {
  %2 = alloca ptr, align 8
  store ptr %0, ptr %2, align 8
  %3 = load ptr, ptr %2, align 8
  %4 = getelementptr inbounds nuw %"class.llvm::StringRef", ptr %3, i32 0, i32 0
  %5 = load ptr, ptr %4, align 8
  ret ptr %5
}

; Function Attrs: mustprogress nounwind uwtable
define dso_local void @_ZNK5clang6format28IntegerLiteralSeparatorFixer6formatB5cxx11EN4llvm9StringRefEiib(ptr dead_on_unwind noalias writable sret(%"class.std::__cxx11::basic_string") align 8 %0, ptr noundef nonnull align 1 dereferenceable(1) %1, ptr %2, i64 %3, i32 noundef %4, i32 noundef %5, i1 noundef zeroext %6) #0 align 2 {
  %8 = alloca ptr, align 8
  %9 = alloca %"class.llvm::StringRef", align 8
  %10 = alloca ptr, align 8
  %11 = alloca i32, align 4
  %12 = alloca i32, align 4
  %13 = alloca i8, align 1
  %14 = alloca i1, align 1
  %15 = alloca ptr, align 8
  %16 = alloca ptr, align 8
  %17 = alloca ptr, align 8
  %18 = alloca i8, align 1
  %19 = alloca i32, align 4
  %20 = alloca i32, align 4
  %21 = alloca i32, align 4
  %22 = alloca ptr, align 8
  %23 = alloca ptr, align 8
  %24 = alloca ptr, align 8
  %25 = alloca i8, align 1
  store ptr %0, ptr %8, align 8
  %26 = getelementptr inbounds nuw { ptr, i64 }, ptr %9, i32 0, i32 0
  store ptr %2, ptr %26, align 8
  %27 = getelementptr inbounds nuw { ptr, i64 }, ptr %9, i32 0, i32 1
  store i64 %3, ptr %27, align 8
  store ptr %1, ptr %10, align 8
  store i32 %4, ptr %11, align 4
  store i32 %5, ptr %12, align 4
  %28 = zext i1 %6 to i8
  store i8 %28, ptr %13, align 1
  %29 = load ptr, ptr %10, align 8
  store i1 false, ptr %14, align 1
  call void @_ZNSt7__cxx1112basic_stringIcSt11char_traitsIcESaIcEEC1Ev(ptr noundef nonnull align 8 dereferenceable(32) %0) #9
  %30 = load i8, ptr %13, align 1
  %31 = trunc i8 %30 to i1
  br i1 %31, label %32, label %57

32:                                               ; preds = %7
  store ptr %9, ptr %15, align 8
  %33 = load ptr, ptr %15, align 8
  %34 = call noundef ptr @_ZNK4llvm9StringRef5beginEv(ptr noundef nonnull align 8 dereferenceable(16) %33)
  store ptr %34, ptr %16, align 8
  %35 = load ptr, ptr %15, align 8
  %36 = call noundef ptr @_ZNK4llvm9StringRef3endEv(ptr noundef nonnull align 8 dereferenceable(16) %35)
  store ptr %36, ptr %17, align 8
  br label %37

37:                                               ; preds = %53, %32
  %38 = load ptr, ptr %16, align 8
  %39 = load ptr, ptr %17, align 8
  %40 = icmp ne ptr %38, %39
  br i1 %40, label %41, label %56

41:                                               ; preds = %37
  %42 = load ptr, ptr %16, align 8
  %43 = load i8, ptr %42, align 1
  store i8 %43, ptr %18, align 1
  %44 = load i8, ptr %18, align 1
  %45 = sext i8 %44 to i32
  %46 = getelementptr inbounds nuw %"class.clang::format::IntegerLiteralSeparatorFixer", ptr %29, i32 0, i32 0
  %47 = load i8, ptr %46, align 1
  %48 = sext i8 %47 to i32
  %49 = icmp ne i32 %45, %48
  br i1 %49, label %50, label %52

50:                                               ; preds = %41
  %51 = load i8, ptr %18, align 1
  call void @_ZNSt7__cxx1112basic_stringIcSt11char_traitsIcESaIcEE9push_backEc(ptr noundef nonnull align 8 dereferenceable(32) %0, i8 noundef signext %51)
  br label %52

52:                                               ; preds = %50, %41
  br label %53

53:                                               ; preds = %52
  %54 = load ptr, ptr %16, align 8
  %55 = getelementptr inbounds i8, ptr %54, i32 1
  store ptr %55, ptr %16, align 8
  br label %37

56:                                               ; preds = %37
  store i1 true, ptr %14, align 1
  store i32 1, ptr %19, align 4
  br label %101

57:                                               ; preds = %7
  %58 = load i32, ptr %12, align 4
  %59 = load i32, ptr %11, align 4
  %60 = srem i32 %58, %59
  store i32 %60, ptr %20, align 4
  store i32 0, ptr %21, align 4
  store ptr %9, ptr %22, align 8
  %61 = load ptr, ptr %22, align 8
  %62 = call noundef ptr @_ZNK4llvm9StringRef5beginEv(ptr noundef nonnull align 8 dereferenceable(16) %61)
  store ptr %62, ptr %23, align 8
  %63 = load ptr, ptr %22, align 8
  %64 = call noundef ptr @_ZNK4llvm9StringRef3endEv(ptr noundef nonnull align 8 dereferenceable(16) %63)
  store ptr %64, ptr %24, align 8
  br label %65

65:                                               ; preds = %97, %57
  %66 = load ptr, ptr %23, align 8
  %67 = load ptr, ptr %24, align 8
  %68 = icmp ne ptr %66, %67
  br i1 %68, label %69, label %100

69:                                               ; preds = %65
  %70 = load ptr, ptr %23, align 8
  %71 = load i8, ptr %70, align 1
  store i8 %71, ptr %25, align 1
  %72 = load i8, ptr %25, align 1
  %73 = sext i8 %72 to i32
  %74 = getelementptr inbounds nuw %"class.clang::format::IntegerLiteralSeparatorFixer", ptr %29, i32 0, i32 0
  %75 = load i8, ptr %74, align 1
  %76 = sext i8 %75 to i32
  %77 = icmp eq i32 %73, %76
  br i1 %77, label %78, label %79

78:                                               ; preds = %69
  br label %97

79:                                               ; preds = %69
  %80 = load i32, ptr %21, align 4
  %81 = load i32, ptr %20, align 4
  %82 = icmp sgt i32 %81, 0
  br i1 %82, label %83, label %85

83:                                               ; preds = %79
  %84 = load i32, ptr %20, align 4
  br label %87

85:                                               ; preds = %79
  %86 = load i32, ptr %11, align 4
  br label %87

87:                                               ; preds = %85, %83
  %88 = phi i32 [ %84, %83 ], [ %86, %85 ]
  %89 = icmp eq i32 %80, %88
  br i1 %89, label %90, label %93

90:                                               ; preds = %87
  %91 = getelementptr inbounds nuw %"class.clang::format::IntegerLiteralSeparatorFixer", ptr %29, i32 0, i32 0
  %92 = load i8, ptr %91, align 1
  call void @_ZNSt7__cxx1112basic_stringIcSt11char_traitsIcESaIcEE9push_backEc(ptr noundef nonnull align 8 dereferenceable(32) %0, i8 noundef signext %92)
  store i32 0, ptr %21, align 4
  store i32 0, ptr %20, align 4
  br label %93

93:                                               ; preds = %90, %87
  %94 = load i8, ptr %25, align 1
  call void @_ZNSt7__cxx1112basic_stringIcSt11char_traitsIcESaIcEE9push_backEc(ptr noundef nonnull align 8 dereferenceable(32) %0, i8 noundef signext %94)
  %95 = load i32, ptr %21, align 4
  %96 = add nsw i32 %95, 1
  store i32 %96, ptr %21, align 4
  br label %97

97:                                               ; preds = %93, %78
  %98 = load ptr, ptr %23, align 8
  %99 = getelementptr inbounds i8, ptr %98, i32 1
  store ptr %99, ptr %23, align 8
  br label %65

100:                                              ; preds = %65
  store i1 true, ptr %14, align 1
  store i32 1, ptr %19, align 4
  br label %101

101:                                              ; preds = %100, %56
  %102 = load i1, ptr %14, align 1
  br i1 %102, label %104, label %103

103:                                              ; preds = %101
  call void @_ZNSt7__cxx1112basic_stringIcSt11char_traitsIcESaIcEED1Ev(ptr noundef nonnull align 8 dereferenceable(32) %0) #9
  br label %104

104:                                              ; preds = %103, %101
  ret void
}