; Function Attrs: mustprogress nounwind uwtable
define dso_local void @_ZNK5clang6format28IntegerLiteralSeparatorFixer6formatB5cxx11EN4llvm9StringRefEiib(ptr dead_on_unwind noalias nonnull writable sret(%"class.std::__cxx11::basic_string") align 8 %0, ptr nocapture noundef nonnull readonly align 1 dereferenceable(1) %1, ptr readonly %2, i64 %3, i32 noundef %4, i32 noundef %5, i1 noundef zeroext %6) local_unnamed_addr #0 align 2 {
  tail call void @_ZNSt7__cxx1112basic_stringIcSt11char_traitsIcESaIcEEC1Ev(ptr noundef nonnull align 8 dereferenceable(32) %0) #13
  %8 = getelementptr inbounds i8, ptr %2, i64 %3
  %.not3142 = icmp eq i64 %3, 0
  br i1 %6, label %9, label %15

9:                                                ; preds = %7
  br i1 %.not3142, label %.loopexit, label %.lr.ph44

.lr.ph44:                                         ; preds = %9, %13
  %.02543 = phi ptr [ %14, %13 ], [ %2, %9 ]
  %10 = load i8, ptr %.02543, align 1
  %11 = load i8, ptr %1, align 1
  %.not32 = icmp eq i8 %10, %11
  br i1 %.not32, label %13, label %12

12:                                               ; preds = %.lr.ph44
  tail call void @_ZNSt7__cxx1112basic_stringIcSt11char_traitsIcESaIcEE9push_backEc(ptr noundef nonnull align 8 dereferenceable(32) %0, i8 noundef signext %10) #13
  br label %13

13:                                               ; preds = %.lr.ph44, %12
  %14 = getelementptr inbounds i8, ptr %.02543, i64 1
  %.not31 = icmp eq ptr %14, %8
  br i1 %.not31, label %.loopexit, label %.lr.ph44

15:                                               ; preds = %7
  br i1 %.not3142, label %.loopexit, label %.lr.ph.preheader

.lr.ph.preheader:                                 ; preds = %15
  %16 = srem i32 %5, %4
  br label %.lr.ph

.lr.ph:                                           ; preds = %.lr.ph.preheader, %27
  %.02641 = phi ptr [ %28, %27 ], [ %2, %.lr.ph.preheader ]
  %.02740 = phi i32 [ %.1, %27 ], [ 0, %.lr.ph.preheader ]
  %.02839 = phi i32 [ %.129, %27 ], [ %16, %.lr.ph.preheader ]
  %17 = load i8, ptr %.02641, align 1
  %18 = load i8, ptr %1, align 1
  %19 = icmp eq i8 %17, %18
  br i1 %19, label %27, label %20

20:                                               ; preds = %.lr.ph
  %21 = icmp sgt i32 %.02839, 0
  %22 = select i1 %21, i32 %.02839, i32 %4
  %23 = icmp eq i32 %.02740, %22
  br i1 %23, label %24, label %25

24:                                               ; preds = %20
  tail call void @_ZNSt7__cxx1112basic_stringIcSt11char_traitsIcESaIcEE9push_backEc(ptr noundef nonnull align 8 dereferenceable(32) %0, i8 noundef signext %18) #13
  br label %25

25:                                               ; preds = %24, %20
  %.230 = phi i32 [ 0, %24 ], [ %.02839, %20 ]
  %.2 = phi i32 [ 0, %24 ], [ %.02740, %20 ]
  tail call void @_ZNSt7__cxx1112basic_stringIcSt11char_traitsIcESaIcEE9push_backEc(ptr noundef nonnull align 8 dereferenceable(32) %0, i8 noundef signext %17) #13
  %26 = add nsw i32 %.2, 1
  br label %27

27:                                               ; preds = %.lr.ph, %25
  %.129 = phi i32 [ %.02839, %.lr.ph ], [ %.230, %25 ]
  %.1 = phi i32 [ %.02740, %.lr.ph ], [ %26, %25 ]
  %28 = getelementptr inbounds i8, ptr %.02641, i64 1
  %.not = icmp eq ptr %28, %8
  br i1 %.not, label %.loopexit, label %.lr.ph

.loopexit:                                        ; preds = %27, %13, %15, %9
  ret void
}